; ModuleID = '12/185.c'
source_filename = "12/185.c"
target datalayout = "e-m:e-p270:32:32-p271:32:32-p272:64:64-i64:64-f80:128-n8:16:32:64-S128"
target triple = "x86_64-pc-linux-gnu"

@.str = private unnamed_addr constant [3 x i8] c"%d\00", align 1
@.str.1 = private unnamed_addr constant [4 x i8] c"%d\0A\00", align 1

; Function Attrs: noinline nounwind uwtable
define dso_local i32 @main() #0 {
  %1 = alloca i32, align 4
  %2 = alloca [20 x [16 x i32]], align 16
  %3 = alloca [20 x i32], align 16
  %4 = alloca i32, align 4
  %5 = alloca i32, align 4
  %6 = alloca i32, align 4
  store i32 0, i32* %1, align 4
  %7 = bitcast [20 x i32]* %3 to i8*
  call void @llvm.memset.p0i8.i64(i8* align 16 %7, i8 0, i64 80, i1 false)
  store i32 0, i32* %4, align 4
  store i32 0, i32* %6, align 4
  %8 = getelementptr inbounds [20 x [16 x i32]], [20 x [16 x i32]]* %2, i64 0, i64 0
  %9 = getelementptr inbounds [16 x i32], [16 x i32]* %8, i64 0, i64 0
  %10 = call i32 (i8*, ...) @__isoc99_scanf(i8* getelementptr inbounds ([3 x i8], [3 x i8]* @.str, i64 0, i64 0), i32* %9)
  %11 = load i32, i32* %4, align 4
  %12 = add nsw i32 %11, 1
  store i32 %12, i32* %4, align 4
  br label %13

13:                                               ; preds = %41, %0
  %14 = load i32, i32* %6, align 4
  %15 = sext i32 %14 to i64
  %16 = getelementptr inbounds [20 x [16 x i32]], [20 x [16 x i32]]* %2, i64 0, i64 %15
  %17 = getelementptr inbounds [16 x i32], [16 x i32]* %16, i64 0, i64 0
  %18 = load i32, i32* %17, align 16
  %19 = icmp ne i32 %18, -1
  br i1 %19, label %20, label %49

20:                                               ; preds = %13
  br label %21

21:                                               ; preds = %31, %20
  %22 = load i32, i32* %6, align 4
  %23 = sext i32 %22 to i64
  %24 = getelementptr inbounds [20 x [16 x i32]], [20 x [16 x i32]]* %2, i64 0, i64 %23
  %25 = load i32, i32* %4, align 4
  %26 = sext i32 %25 to i64
  %27 = getelementptr inbounds [16 x i32], [16 x i32]* %24, i64 0, i64 %26
  %28 = call i32 (i8*, ...) @__isoc99_scanf(i8* getelementptr inbounds ([3 x i8], [3 x i8]* @.str, i64 0, i64 0), i32* %27)
  %29 = load i32, i32* %4, align 4
  %30 = add nsw i32 %29, 1
  store i32 %30, i32* %4, align 4
  br label %31

31:                                               ; preds = %21
  %32 = load i32, i32* %6, align 4
  %33 = sext i32 %32 to i64
  %34 = getelementptr inbounds [20 x [16 x i32]], [20 x [16 x i32]]* %2, i64 0, i64 %33
  %35 = load i32, i32* %4, align 4
  %36 = sub nsw i32 %35, 1
  %37 = sext i32 %36 to i64
  %38 = getelementptr inbounds [16 x i32], [16 x i32]* %34, i64 0, i64 %37
  %39 = load i32, i32* %38, align 4
  %40 = icmp ne i32 %39, 0
  br i1 %40, label %21, label %41

41:                                               ; preds = %31
  %42 = load i32, i32* %6, align 4
  %43 = add nsw i32 %42, 1
  store i32 %43, i32* %6, align 4
  %44 = load i32, i32* %6, align 4
  %45 = sext i32 %44 to i64
  %46 = getelementptr inbounds [20 x [16 x i32]], [20 x [16 x i32]]* %2, i64 0, i64 %45
  %47 = getelementptr inbounds [16 x i32], [16 x i32]* %46, i64 0, i64 0
  %48 = call i32 (i8*, ...) @__isoc99_scanf(i8* getelementptr inbounds ([3 x i8], [3 x i8]* @.str, i64 0, i64 0), i32* %47)
  store i32 1, i32* %4, align 4
  br label %13

49:                                               ; preds = %13
  store i32 0, i32* %6, align 4
  br label %50

50:                                               ; preds = %167, %49
  %51 = load i32, i32* %6, align 4
  %52 = sext i32 %51 to i64
  %53 = getelementptr inbounds [20 x [16 x i32]], [20 x [16 x i32]]* %2, i64 0, i64 %52
  %54 = getelementptr inbounds [16 x i32], [16 x i32]* %53, i64 0, i64 0
  %55 = load i32, i32* %54, align 16
  %56 = icmp ne i32 %55, -1
  br i1 %56, label %57, label %170

57:                                               ; preds = %50
  store i32 0, i32* %4, align 4
  br label %58

58:                                               ; preds = %158, %57
  %59 = load i32, i32* %6, align 4
  %60 = sext i32 %59 to i64
  %61 = getelementptr inbounds [20 x [16 x i32]], [20 x [16 x i32]]* %2, i64 0, i64 %60
  %62 = load i32, i32* %4, align 4
  %63 = sext i32 %62 to i64
  %64 = getelementptr inbounds [16 x i32], [16 x i32]* %61, i64 0, i64 %63
  %65 = load i32, i32* %64, align 4
  %66 = icmp ne i32 %65, 0
  br i1 %66, label %67, label %161

67:                                               ; preds = %58
  %68 = load i32, i32* %4, align 4
  %69 = add nsw i32 %68, 1
  store i32 %69, i32* %5, align 4
  br label %70

70:                                               ; preds = %154, %67
  %71 = load i32, i32* %6, align 4
  %72 = sext i32 %71 to i64
  %73 = getelementptr inbounds [20 x [16 x i32]], [20 x [16 x i32]]* %2, i64 0, i64 %72
  %74 = load i32, i32* %5, align 4
  %75 = sext i32 %74 to i64
  %76 = getelementptr inbounds [16 x i32], [16 x i32]* %73, i64 0, i64 %75
  %77 = load i32, i32* %76, align 4
  %78 = icmp ne i32 %77, 0
  br i1 %78, label %79, label %157

79:                                               ; preds = %70
  %80 = load i32, i32* %6, align 4
  %81 = sext i32 %80 to i64
  %82 = getelementptr inbounds [20 x [16 x i32]], [20 x [16 x i32]]* %2, i64 0, i64 %81
  %83 = load i32, i32* %5, align 4
  %84 = sext i32 %83 to i64
  %85 = getelementptr inbounds [16 x i32], [16 x i32]* %82, i64 0, i64 %84
  %86 = load i32, i32* %85, align 4
  %87 = load i32, i32* %6, align 4
  %88 = sext i32 %87 to i64
  %89 = getelementptr inbounds [20 x [16 x i32]], [20 x [16 x i32]]* %2, i64 0, i64 %88
  %90 = load i32, i32* %4, align 4
  %91 = sext i32 %90 to i64
  %92 = getelementptr inbounds [16 x i32], [16 x i32]* %89, i64 0, i64 %91
  %93 = load i32, i32* %92, align 4
  %94 = sdiv i32 %86, %93
  %95 = icmp eq i32 %94, 2
  br i1 %95, label %96, label %113

96:                                               ; preds = %79
  %97 = load i32, i32* %6, align 4
  %98 = sext i32 %97 to i64
  %99 = getelementptr inbounds [20 x [16 x i32]], [20 x [16 x i32]]* %2, i64 0, i64 %98
  %100 = load i32, i32* %5, align 4
  %101 = sext i32 %100 to i64
  %102 = getelementptr inbounds [16 x i32], [16 x i32]* %99, i64 0, i64 %101
  %103 = load i32, i32* %102, align 4
  %104 = load i32, i32* %6, align 4
  %105 = sext i32 %104 to i64
  %106 = getelementptr inbounds [20 x [16 x i32]], [20 x [16 x i32]]* %2, i64 0, i64 %105
  %107 = load i32, i32* %4, align 4
  %108 = sext i32 %107 to i64
  %109 = getelementptr inbounds [16 x i32], [16 x i32]* %106, i64 0, i64 %108
  %110 = load i32, i32* %109, align 4
  %111 = srem i32 %103, %110
  %112 = icmp eq i32 %111, 0
  br i1 %112, label %147, label %113

113:                                              ; preds = %96, %79
  %114 = load i32, i32* %6, align 4
  %115 = sext i32 %114 to i64
  %116 = getelementptr inbounds [20 x [16 x i32]], [20 x [16 x i32]]* %2, i64 0, i64 %115
  %117 = load i32, i32* %4, align 4
  %118 = sext i32 %117 to i64
  %119 = getelementptr inbounds [16 x i32], [16 x i32]* %116, i64 0, i64 %118
  %120 = load i32, i32* %119, align 4
  %121 = load i32, i32* %6, align 4
  %122 = sext i32 %121 to i64
  %123 = getelementptr inbounds [20 x [16 x i32]], [20 x [16 x i32]]* %2, i64 0, i64 %122
  %124 = load i32, i32* %5, align 4
  %125 = sext i32 %124 to i64
  %126 = getelementptr inbounds [16 x i32], [16 x i32]* %123, i64 0, i64 %125
  %127 = load i32, i32* %126, align 4
  %128 = sdiv i32 %120, %127
  %129 = icmp eq i32 %128, 2
  br i1 %129, label %130, label %153

130:                                              ; preds = %113
  %131 = load i32, i32* %6, align 4
  %132 = sext i32 %131 to i64
  %133 = getelementptr inbounds [20 x [16 x i32]], [20 x [16 x i32]]* %2, i64 0, i64 %132
  %134 = load i32, i32* %4, align 4
  %135 = sext i32 %134 to i64
  %136 = getelementptr inbounds [16 x i32], [16 x i32]* %133, i64 0, i64 %135
  %137 = load i32, i32* %136, align 4
  %138 = load i32, i32* %6, align 4
  %139 = sext i32 %138 to i64
  %140 = getelementptr inbounds [20 x [16 x i32]], [20 x [16 x i32]]* %2, i64 0, i64 %139
  %141 = load i32, i32* %5, align 4
  %142 = sext i32 %141 to i64
  %143 = getelementptr inbounds [16 x i32], [16 x i32]* %140, i64 0, i64 %142
  %144 = load i32, i32* %143, align 4
  %145 = srem i32 %137, %144
  %146 = icmp eq i32 %145, 0
  br i1 %146, label %147, label %153

147:                                              ; preds = %130, %96
  %148 = load i32, i32* %6, align 4
  %149 = sext i32 %148 to i64
  %150 = getelementptr inbounds [20 x i32], [20 x i32]* %3, i64 0, i64 %149
  %151 = load i32, i32* %150, align 4
  %152 = add nsw i32 %151, 1
  store i32 %152, i32* %150, align 4
  br label %153

153:                                              ; preds = %147, %130, %113
  br label %154

154:                                              ; preds = %153
  %155 = load i32, i32* %5, align 4
  %156 = add nsw i32 %155, 1
  store i32 %156, i32* %5, align 4
  br label %70

157:                                              ; preds = %70
  br label %158

158:                                              ; preds = %157
  %159 = load i32, i32* %4, align 4
  %160 = add nsw i32 %159, 1
  store i32 %160, i32* %4, align 4
  br label %58

161:                                              ; preds = %58
  %162 = load i32, i32* %6, align 4
  %163 = sext i32 %162 to i64
  %164 = getelementptr inbounds [20 x i32], [20 x i32]* %3, i64 0, i64 %163
  %165 = load i32, i32* %164, align 4
  %166 = call i32 (i8*, ...) @printf(i8* getelementptr inbounds ([4 x i8], [4 x i8]* @.str.1, i64 0, i64 0), i32 %165)
  br label %167

167:                                              ; preds = %161
  %168 = load i32, i32* %6, align 4
  %169 = add nsw i32 %168, 1
  store i32 %169, i32* %6, align 4
  br label %50

170:                                              ; preds = %50
  ret i32 0
}

; Function Attrs: argmemonly nounwind willreturn
declare void @llvm.memset.p0i8.i64(i8* nocapture writeonly, i8, i64, i1 immarg) #1

declare dso_local i32 @__isoc99_scanf(i8*, ...) #2

declare dso_local i32 @printf(i8*, ...) #2


!llvm.module.flags = !{!0}
!llvm.ident = !{!1}

!0 = !{i32 1, !"wchar_size", i32 4}
!1 = !{!"clang version 10.0.0-4ubuntu1 "}
